Certificate:
    Data:
        Version: 3 (0x2)
        Serial Number: 1 (0x1)
    Signature Algorithm: md5WithRSAEncryption
        Issuer: C=FR, ST=Radius, L=Somewhere, O=Example Inc./emailAddress=admin@example.com, CN=Example Certificate Authority
        Validity
            Not Before: Nov 14 13:37:53 2016 GMT
            Not After : Nov 14 13:37:53 2017 GMT
        Subject: C=FR, ST=Radius, O=Example Inc., CN=Example Server Certificate/emailAddress=admin@example.com
        Subject Public Key Info:
            Public Key Algorithm: rsaEncryption
                Public-Key: (2048 bit)
                Modulus:
                    00:b0:b8:2c:3a:40:48:26:40:ab:a6:8f:81:4d:fc:
                    a4:aa:4e:2d:6c:63:b4:e1:77:02:8b:49:78:96:f8:
                    3e:ef:2a:e8:e1:a3:a6:d6:05:47:31:ae:dd:c3:29:
                    03:c1:5a:37:83:66:a2:95:b2:a6:43:67:ed:22:7b:
                    db:a3:d5:2d:a2:07:f5:a2:c2:a5:79:a5:e3:58:44:
                    75:ed:14:e2:c1:e0:c6:5d:7a:2f:07:a4:cf:eb:32:
                    3c:95:68:ad:6d:67:54:90:9c:aa:36:a2:b6:01:84:
                    6c:9e:5c:18:20:0e:d5:21:d2:cd:13:a9:d3:e5:1c:
                    a4:b5:cb:04:c0:fa:93:86:bf:e5:5b:7e:3f:a5:09:
                    e1:22:44:37:72:49:f7:03:33:1e:8b:bc:05:16:a5:
                    8b:e8:5d:2b:66:74:5a:b0:29:e6:88:80:aa:22:f6:
                    63:6c:be:6d:35:4f:9d:bc:26:a3:c0:bf:43:1a:01:
                    aa:f4:a3:db:f1:9a:55:ac:ce:4a:6f:88:48:76:ce:
                    a1:2d:ab:af:dd:87:a3:8a:f4:56:a9:4b:d7:95:14:
                    94:68:35:85:43:54:86:8c:01:7a:9b:30:2e:eb:a5:
                    23:cd:93:5d:0b:75:67:05:a1:75:fd:5d:f3:b0:66:
                    b7:d2:94:dd:4c:99:03:7d:10:6c:17:ab:b1:c3:8f:
                    47:05
                Exponent: 65537 (0x10001)
        X509v3 extensions:
            X509v3 Extended Key Usage: 
                TLS Web Server Authentication
    Signature Algorithm: md5WithRSAEncryption
         72:72:2d:02:87:de:a1:d1:87:6e:1c:81:0c:57:54:f9:c1:0a:
         c6:d1:7c:fb:cf:16:eb:28:bc:7c:c3:be:32:6b:83:6e:6d:9b:
         5a:83:13:54:03:bc:0e:30:38:8b:e3:fc:1a:58:64:e4:b6:ef:
         48:d1:9f:72:f4:2b:e2:9d:35:cf:a6:ae:f4:7c:08:44:3d:dc:
         6d:d0:c8:a7:6b:2e:33:b5:24:6e:68:0e:c1:f9:d8:f3:39:a4:
         cb:20:2c:fb:fe:33:56:57:be:7e:85:95:23:ba:ea:2a:ad:b4:
         29:d6:d1:84:53:82:5a:a9:71:7d:a4:f2:64:d0:38:98:5f:c7:
         8a:37:06:d3:8a:a2:34:d0:bf:0f:b7:f6:50:9f:83:2d:ab:3e:
         f3:b8:e6:e5:d2:d3:b4:97:72:64:2e:7c:c4:76:7a:ff:fb:c7:
         d7:d1:e8:07:12:67:97:d4:44:e7:b7:ea:76:96:9f:6a:52:cd:
         79:b0:9b:23:ed:3e:79:92:de:76:6a:66:2e:83:4e:50:67:b1:
         3a:33:c1:bb:b1:cd:b2:81:97:93:c5:57:32:29:8f:59:8e:51:
         58:49:aa:45:e9:e3:fb:0f:33:c2:7d:c1:15:28:18:7d:4c:b3:
         2f:49:a8:a9:a1:c2:7c:11:bb:f9:70:fd:c0:7c:62:cf:7f:5c:
         d5:0a:0f:97
-----BEGIN CERTIFICATE-----
MIIDojCCAoqgAwIBAgIBATANBgkqhkiG9w0BAQQFADCBkzELMAkGA1UEBhMCRlIx
DzANBgNVBAgMBlJhZGl1czESMBAGA1UEBwwJU29tZXdoZXJlMRUwEwYDVQQKDAxF
eGFtcGxlIEluYy4xIDAeBgkqhkiG9w0BCQEWEWFkbWluQGV4YW1wbGUuY29tMSYw
JAYDVQQDDB1FeGFtcGxlIENlcnRpZmljYXRlIEF1dGhvcml0eTAeFw0xNjExMTQx
MzM3NTNaFw0xNzExMTQxMzM3NTNaMHwxCzAJBgNVBAYTAkZSMQ8wDQYDVQQIDAZS
YWRpdXMxFTATBgNVBAoMDEV4YW1wbGUgSW5jLjEjMCEGA1UEAwwaRXhhbXBsZSBT
ZXJ2ZXIgQ2VydGlmaWNhdGUxIDAeBgkqhkiG9w0BCQEWEWFkbWluQGV4YW1wbGUu
Y29tMIIBIjANBgkqhkiG9w0BAQEFAAOCAQ8AMIIBCgKCAQEAsLgsOkBIJkCrpo+B
Tfykqk4tbGO04XcCi0l4lvg+7yro4aOm1gVHMa7dwykDwVo3g2ailbKmQ2ftInvb
o9Utogf1osKleaXjWER17RTiweDGXXovB6TP6zI8lWitbWdUkJyqNqK2AYRsnlwY
IA7VIdLNE6nT5RyktcsEwPqThr/lW34/pQnhIkQ3ckn3AzMei7wFFqWL6F0rZnRa
sCnmiICqIvZjbL5tNU+dvCajwL9DGgGq9KPb8ZpVrM5Kb4hIds6hLauv3YejivRW
qUvXlRSUaDWFQ1SGjAF6mzAu66UjzZNdC3VnBaF1/V3zsGa30pTdTJkDfRBsF6ux
w49HBQIDAQABoxcwFTATBgNVHSUEDDAKBggrBgEFBQcDATANBgkqhkiG9w0BAQQF
AAOCAQEAcnItAofeodGHbhyBDFdU+cEKxtF8+88W6yi8fMO+MmuDbm2bWoMTVAO8
DjA4i+P8Glhk5LbvSNGfcvQr4p01z6au9HwIRD3cbdDIp2suM7UkbmgOwfnY8zmk
yyAs+/4zVle+foWVI7rqKq20KdbRhFOCWqlxfaTyZNA4mF/HijcG04qiNNC/D7f2
UJ+DLas+87jm5dLTtJdyZC58xHZ6//vH19HoBxJnl9RE57fqdpafalLNebCbI+0+
eZLedmpmLoNOUGexOjPBu7HNsoGXk8VXMimPWY5RWEmqRenj+w8zwn3BFSgYfUyz
L0moqaHCfBG7+XD9wHxiz39c1QoPlw==
-----END CERTIFICATE-----
