Certificate:
    Data:
        Version: 3 (0x2)
        Serial Number: 2 (0x2)
    Signature Algorithm: md5WithRSAEncryption
        Issuer: C=PT, ST=Lisbon, L=Lisbon, O=ISCTE-IUL/emailAddress=admin@iscte-iul.pt, CN=ISCTE-IUL Certificate Authority
        Validity
            Not Before: Nov 14 17:48:46 2016 GMT
            Not After : Nov 14 17:48:46 2017 GMT
        Subject: C=PT, ST=Lisbon, O=ISCTE-IUL, CN=ISCTE-IUL Server Certificate/emailAddress=admin@iscte-iul.pt
        Subject Public Key Info:
            Public Key Algorithm: rsaEncryption
                Public-Key: (2048 bit)
                Modulus:
                    00:cb:9b:0f:1d:30:5c:ec:82:63:d6:f0:bb:9c:fd:
                    49:e8:23:ed:97:fb:67:5d:3b:5c:6e:2c:a3:40:19:
                    8d:eb:d5:50:95:f7:86:87:6e:fb:b4:d5:33:58:32:
                    6e:f2:7f:e1:76:08:ba:7c:f6:c9:a1:b2:f8:e7:6e:
                    6e:1b:de:52:d5:35:fb:8d:07:91:22:28:53:12:32:
                    c2:c3:18:9f:2f:e5:08:23:30:07:38:61:c0:93:98:
                    a7:1d:fc:73:0f:ef:15:d3:93:3b:47:03:34:48:86:
                    d7:e6:7d:5d:39:fa:5a:98:f9:49:b5:95:85:70:7a:
                    24:d3:d9:01:ff:a0:9c:5c:d0:94:a3:fe:1e:da:39:
                    b7:9d:1a:f8:a8:05:a6:a1:03:17:aa:1f:07:b0:40:
                    b8:1b:c7:f5:3b:18:35:aa:49:05:7e:56:dc:f4:d7:
                    7c:b5:6e:be:01:4a:d3:18:87:aa:c4:52:6a:77:ff:
                    3e:00:54:46:e9:91:3a:f1:7c:05:09:71:44:27:9a:
                    50:9e:1c:c4:59:d0:f3:9c:3b:9e:03:a1:ad:0f:49:
                    89:1f:dd:16:a5:bf:ec:94:ea:7a:48:86:2c:0b:9d:
                    77:7c:75:7a:b0:a3:ce:bc:ca:4a:fb:e7:07:42:8b:
                    05:4d:84:6b:4b:68:5b:49:8a:fa:3a:4c:ed:3a:a0:
                    1c:07
                Exponent: 65537 (0x10001)
        X509v3 extensions:
            X509v3 Extended Key Usage: 
                TLS Web Server Authentication
    Signature Algorithm: md5WithRSAEncryption
         ae:2a:da:64:d7:8d:31:60:dd:89:80:2e:c0:6d:36:aa:dc:93:
         2b:ba:fb:06:a1:7d:96:79:dc:9a:65:02:0e:21:99:62:dd:62:
         28:80:52:55:8c:a8:ce:5b:00:12:7d:aa:5b:67:4b:59:8c:09:
         b3:73:04:6a:c7:bb:21:75:99:c8:24:e2:26:08:f3:17:70:a2:
         0c:a6:8e:bb:e8:07:57:d9:9f:4c:9b:6a:05:e7:5b:a7:50:aa:
         0a:62:05:2e:64:76:30:c3:b0:a1:fa:76:f1:50:6c:61:0e:e5:
         8c:c4:28:c8:63:0c:33:0c:08:91:db:80:c3:24:7d:0e:73:e2:
         ae:35:20:63:02:13:d0:ea:dc:0e:45:91:be:78:ec:c7:9c:2b:
         2e:9c:4d:fd:66:8b:42:0e:94:d0:95:ca:09:60:4c:fb:b6:d7:
         79:75:94:82:6d:b5:33:af:52:2b:35:bc:30:ba:b8:4d:ab:20:
         c9:9a:a3:1d:f7:23:65:67:8b:96:6a:3f:f7:44:55:07:0f:b8:
         90:fd:d1:38:3f:7e:61:0e:77:5a:b8:d8:16:2f:ef:2e:39:ff:
         8a:c4:f2:a7:0f:34:0d:44:9b:18:58:5b:2b:ce:61:0b:c1:53:
         f0:fe:95:86:75:0d:31:c7:26:9d:02:f7:c5:af:16:d1:83:ac:
         84:be:c6:a0
-----BEGIN CERTIFICATE-----
MIIDnzCCAoegAwIBAgIBAjANBgkqhkiG9w0BAQQFADCBkDELMAkGA1UEBhMCUFQx
DzANBgNVBAgMBkxpc2JvbjEPMA0GA1UEBwwGTGlzYm9uMRIwEAYDVQQKDAlJU0NU
RS1JVUwxITAfBgkqhkiG9w0BCQEWEmFkbWluQGlzY3RlLWl1bC5wdDEoMCYGA1UE
AwwfSVNDVEUtSVVMIENlcnRpZmljYXRlIEF1dGhvcml0eTAeFw0xNjExMTQxNzQ4
NDZaFw0xNzExMTQxNzQ4NDZaMHwxCzAJBgNVBAYTAlBUMQ8wDQYDVQQIDAZMaXNi
b24xEjAQBgNVBAoMCUlTQ1RFLUlVTDElMCMGA1UEAwwcSVNDVEUtSVVMIFNlcnZl
ciBDZXJ0aWZpY2F0ZTEhMB8GCSqGSIb3DQEJARYSYWRtaW5AaXNjdGUtaXVsLnB0
MIIBIjANBgkqhkiG9w0BAQEFAAOCAQ8AMIIBCgKCAQEAy5sPHTBc7IJj1vC7nP1J
6CPtl/tnXTtcbiyjQBmN69VQlfeGh277tNUzWDJu8n/hdgi6fPbJobL4525uG95S
1TX7jQeRIihTEjLCwxifL+UIIzAHOGHAk5inHfxzD+8V05M7RwM0SIbX5n1dOfpa
mPlJtZWFcHok09kB/6CcXNCUo/4e2jm3nRr4qAWmoQMXqh8HsEC4G8f1Oxg1qkkF
flbc9Nd8tW6+AUrTGIeqxFJqd/8+AFRG6ZE68XwFCXFEJ5pQnhzEWdDznDueA6Gt
D0mJH90Wpb/slOp6SIYsC513fHV6sKPOvMpK++cHQosFTYRrS2hbSYr6OkztOqAc
BwIDAQABoxcwFTATBgNVHSUEDDAKBggrBgEFBQcDATANBgkqhkiG9w0BAQQFAAOC
AQEAriraZNeNMWDdiYAuwG02qtyTK7r7BqF9lnncmmUCDiGZYt1iKIBSVYyozlsA
En2qW2dLWYwJs3MEase7IXWZyCTiJgjzF3CiDKaOu+gHV9mfTJtqBedbp1CqCmIF
LmR2MMOwofp28VBsYQ7ljMQoyGMMMwwIkduAwyR9DnPirjUgYwIT0OrcDkWRvnjs
x5wrLpxN/WaLQg6U0JXKCWBM+7bXeXWUgm21M69SKzW8MLq4TasgyZqjHfcjZWeL
lmo/90RVBw+4kP3ROD9+YQ53WrjYFi/vLjn/isTypw80DUSbGFhbK85hC8FT8P6V
hnUNMccmnQL3xa8W0YOshL7GoA==
-----END CERTIFICATE-----
